; Function Attrs: mustprogress nofree nounwind willreturn memory(write, argmem: readwrite) uwtable
define internal noundef float @"_ZNSt17_Function_handlerIFfdEZN19OpenColorIO_v2_5dev7DISPLAY7ST_208421GenerateLinearToPQOpsERNS1_10OpRcPtrVecEE3$_0E9_M_invokeERKSt9_Any_dataOd"(ptr nonnull readnone align 8 captures(none) %0, ptr noundef nonnull readonly align 8 captures(none) dereferenceable(8) %1) #11 align 2 {
  %.val = load double, ptr %1, align 8, !tbaa !12
  %3 = fmul double %.val, 1.000000e-02
  %4 = tail call noundef double @llvm.fabs.f64(double %3)
  %5 = tail call double @pow(double noundef %4, double noundef 0x3FC4640000000000) #23, !tbaa !14
  %6 = tail call double @llvm.fmuladd.f64(double %5, double 0x4032DA0000000000, double 0x3FEAC00000000000)
  %7 = tail call double @llvm.fmuladd.f64(double %5, double 1.868750e+01, double 1.000000e+00)
  %8 = fdiv double %6, %7
  %9 = fcmp ogt double %8, 0.000000e+00
  %.sroa.speculated.i.i.i = select i1 %9, double %8, double 0.000000e+00
  %10 = tail call double @pow(double noundef %.sroa.speculated.i.i.i, double noundef 0x4053B60000000000) #23, !tbaa !14
  %11 = tail call double @llvm.copysign.f64(double %10, double %.val)
  %12 = fptrunc double %11 to float
  ret float %12
}